; Function Attrs: nofree norecurse nosync nounwind memory(argmem: readwrite) uwtable
define internal void @ff_tx_mdct_naive_inv_int32_c(ptr noundef readonly captures(none) %0, ptr noundef writeonly captures(none) %1, ptr noundef readonly captures(none) %2, i64 noundef %3) #13 {
  %5 = getelementptr inbounds nuw i8, ptr %0, i64 144
  %6 = load double, ptr %5, align 8, !tbaa !25
  %7 = load i32, ptr %0, align 8, !tbaa !16
  %8 = ashr i32 %7, 1
  %9 = and i32 %7, -2
  %10 = sitofp i32 %9 to double
  %11 = fmul nsz double %10, 4.000000e+00
  %12 = fdiv nsz double 0x400921FB54442D18, %11
  %13 = lshr i64 %3, 2
  %14 = icmp sgt i32 %8, 0
  br i1 %14, label %.lr.ph.us.preheader, label %._crit_edge54

.lr.ph.us.preheader:                              ; preds = %4
  %15 = shl nuw nsw i32 %8, 2
  %16 = mul nsw i32 %9, 3
  %invariant.op = or disjoint i32 %16, 1
  %17 = zext nneg i32 %8 to i64
  %wide.trip.count61 = zext nneg i32 %9 to i64
  %invariant.gep = getelementptr inbounds nuw i32, ptr %1, i64 %17
  br label %.lr.ph.us

.lr.ph.us:                                        ; preds = %.lr.ph.us.preheader, %._crit_edge.us
  %indvars.iv63 = phi i64 [ 0, %.lr.ph.us.preheader ], [ %indvars.iv.next64, %._crit_edge.us ]
  %18 = shl nuw nsw i64 %indvars.iv63, 1
  %19 = trunc nuw nsw i64 %18 to i32
  %20 = xor i32 %19, -1
  %21 = add nsw i32 %15, %20
  %22 = sitofp i32 %21 to double
  %23 = fmul nsz double %12, %22
  %24 = trunc i64 %18 to i32
  %25 = add i32 %invariant.op, %24
  %26 = sitofp i32 %25 to double
  %27 = fmul nsz double %12, %26
  br label %28

28:                                               ; preds = %.lr.ph.us, %28
  %indvars.iv58 = phi i64 [ 0, %.lr.ph.us ], [ %indvars.iv.next59, %28 ]
  %.04149.us = phi double [ 0.000000e+00, %.lr.ph.us ], [ %41, %28 ]
  %.04347.us = phi double [ 0.000000e+00, %.lr.ph.us ], [ %42, %28 ]
  %indvars.iv58.tr = trunc i64 %indvars.iv58 to i32
  %29 = shl i32 %indvars.iv58.tr, 1
  %30 = or disjoint i32 %29, 1
  %31 = uitofp nneg i32 %30 to double
  %32 = fmul nsz double %23, %31
  %33 = tail call nsz double @llvm.cos.f64(double %32)
  %34 = fmul nsz double %27, %31
  %35 = tail call nsz double @llvm.cos.f64(double %34)
  %36 = mul nuw nsw i64 %13, %indvars.iv58
  %37 = getelementptr inbounds nuw i32, ptr %2, i64 %36
  %38 = load i32, ptr %37, align 4, !tbaa !10
  %39 = sitofp i32 %38 to double
  %40 = fmul nsz double %39, 0x3E00000000000000
  %41 = tail call nsz double @llvm.fmuladd.f64(double %33, double %40, double %.04149.us)
  %42 = tail call nsz double @llvm.fmuladd.f64(double %35, double %40, double %.04347.us)
  %indvars.iv.next59 = add nuw nsw i64 %indvars.iv58, 1
  %exitcond62.not = icmp eq i64 %indvars.iv.next59, %wide.trip.count61
  br i1 %exitcond62.not, label %._crit_edge.us, label %28, !llvm.loop !134

._crit_edge.us:                                   ; preds = %28
  %43 = fmul nsz double %6, %41
  %44 = fmul nsz double %43, 0x41E0000000000000
  %45 = fptrunc nsz double %44 to float
  %46 = tail call i64 @llvm.llrint.i64.f32(float %45)
  %47 = tail call i64 @llvm.smax.i64(i64 %46, i64 -2147483648)
  %.0.i46.us = tail call i64 @llvm.smin.i64(i64 %47, i64 2147483647)
  %48 = trunc nsw i64 %.0.i46.us to i32
  %49 = getelementptr inbounds nuw i32, ptr %1, i64 %indvars.iv63
  store i32 %48, ptr %49, align 4, !tbaa !10
  %50 = fneg nsz double %42
  %51 = fmul nsz double %6, %50
  %52 = fmul nsz double %51, 0x41E0000000000000
  %53 = fptrunc nsz double %52 to float
  %54 = tail call i64 @llvm.llrint.i64.f32(float %53)
  %55 = tail call i64 @llvm.smax.i64(i64 %54, i64 -2147483648)
  %.0.i.us = tail call i64 @llvm.smin.i64(i64 %55, i64 2147483647)
  %56 = trunc nsw i64 %.0.i.us to i32
  %gep = getelementptr inbounds nuw i32, ptr %invariant.gep, i64 %indvars.iv63
  store i32 %56, ptr %gep, align 4, !tbaa !10
  %indvars.iv.next64 = add nuw nsw i64 %indvars.iv63, 1
  %exitcond68.not = icmp eq i64 %indvars.iv.next64, %17
  br i1 %exitcond68.not, label %._crit_edge54, label %.lr.ph.us, !llvm.loop !135

._crit_edge54:                                    ; preds = %._crit_edge.us, %4
  ret void
}